target datalayout = "e-m:e-p270:32:32-p271:32:32-p272:64:64-i64:64-i128:128-f80:128-n8:16:32:64-S128"
target triple = "x86_64-pc-linux-gnu"

%struct.SDL_VideoData = type { ptr, ptr, i32, ptr, i64, i32, ptr, i32, i64, i64, %struct.X11_ClipboardData, %struct.X11_ClipboardData, ptr, i64, %struct.X11_SettingsData, i8, %struct.anon.1, [256 x i32], i8, i8, i8, i64, i8, %struct.SDL_Point, i32, ptr, i32, i8, i32, %struct.anon.2, i8, i64, ptr, ptr, i8, i8, i8 }
%struct.X11_ClipboardData = type { ptr, ptr, ptr, i64, i32 }
%struct.X11_SettingsData = type { ptr }
%struct.anon.1 = type { i64, i64, i64, i64, i64, i64, i64, i64, i64, i64, i64, i64, i64, i64, i64, i64, i64, i64, i64, i64, i64, i64, i64, i64, i64, i64, i64, i64, i64, i64, i64, i64, i64, i64, i64, i64, i64, i64, i64, i64, i64, i64, i64, i64, i64, i64, i64, i64, i64, i64, i64, i64, i64 }
%struct.SDL_Point = type { i32, i32 }
%struct.anon.2 = type { ptr, i32, i32, i32, i16, i32, i32 }
%struct.XIDeviceInfo = type { i32, ptr, i32, i32, i32, i32, ptr }
%struct.SDL_XInput2DeviceInfo = type { i32, [2 x i8], [2 x double], [2 x double], [2 x double], ptr }
%struct.XIValuatorClassInfo = type { i32, i32, i32, i64, double, double, double, i32, i32 }

@X11_XIQueryDevice = external global ptr, align 8
@X11_XIFreeDeviceInfo = external global ptr, align 8

; Function Attrs: nounwind uwtable
define internal ptr @xinput2_get_device_info(ptr noundef %0, i32 noundef %1) #0 {
  %3 = alloca ptr, align 8
  %4 = alloca ptr, align 8
  %5 = alloca i32, align 4
  %6 = alloca ptr, align 8
  %7 = alloca ptr, align 8
  %8 = alloca ptr, align 8
  %9 = alloca i32, align 4
  %10 = alloca i32, align 4
  %11 = alloca i32, align 4
  %12 = alloca ptr, align 8
  store ptr %0, ptr %4, align 8
  store i32 %1, ptr %5, align 4
  call void @llvm.lifetime.start.p0(i64 8, ptr %6) #6
  store ptr null, ptr %6, align 8
  call void @llvm.lifetime.start.p0(i64 8, ptr %7) #6
  call void @llvm.lifetime.start.p0(i64 8, ptr %8) #6
  call void @llvm.lifetime.start.p0(i64 4, ptr %9) #6
  store i32 0, ptr %9, align 4
  call void @llvm.lifetime.start.p0(i64 4, ptr %10) #6
  %13 = load ptr, ptr %4, align 8
  %14 = getelementptr inbounds nuw %struct.SDL_VideoData, ptr %13, i32 0, i32 25
  %15 = load ptr, ptr %14, align 8
  store ptr %15, ptr %7, align 8
  br label %16

16:                                               ; preds = %49, %2
  %17 = load ptr, ptr %7, align 8
  %18 = icmp ne ptr %17, null
  br i1 %18, label %19, label %53

19:                                               ; preds = %16
  %20 = load ptr, ptr %7, align 8
  %21 = getelementptr inbounds nuw %struct.SDL_XInput2DeviceInfo, ptr %20, i32 0, i32 0
  %22 = load i32, ptr %21, align 8
  %23 = load i32, ptr %5, align 4
  %24 = icmp eq i32 %22, %23
  br i1 %24, label %25, label %47

25:                                               ; preds = %19
  br label %26

26:                                               ; preds = %25
  br label %27

27:                                               ; preds = %26
  br label %28

28:                                               ; preds = %27
  %29 = load ptr, ptr %6, align 8
  %30 = icmp ne ptr %29, null
  br i1 %30, label %31, label %45

31:                                               ; preds = %28
  %32 = load ptr, ptr %7, align 8
  %33 = getelementptr inbounds nuw %struct.SDL_XInput2DeviceInfo, ptr %32, i32 0, i32 5
  %34 = load ptr, ptr %33, align 8
  %35 = load ptr, ptr %6, align 8
  %36 = getelementptr inbounds nuw %struct.SDL_XInput2DeviceInfo, ptr %35, i32 0, i32 5
  store ptr %34, ptr %36, align 8
  %37 = load ptr, ptr %4, align 8
  %38 = getelementptr inbounds nuw %struct.SDL_VideoData, ptr %37, i32 0, i32 25
  %39 = load ptr, ptr %38, align 8
  %40 = load ptr, ptr %7, align 8
  %41 = getelementptr inbounds nuw %struct.SDL_XInput2DeviceInfo, ptr %40, i32 0, i32 5
  store ptr %39, ptr %41, align 8
  %42 = load ptr, ptr %7, align 8
  %43 = load ptr, ptr %4, align 8
  %44 = getelementptr inbounds nuw %struct.SDL_VideoData, ptr %43, i32 0, i32 25
  store ptr %42, ptr %44, align 8
  br label %45

45:                                               ; preds = %31, %28
  %46 = load ptr, ptr %7, align 8
  store ptr %46, ptr %3, align 8
  store i32 1, ptr %11, align 4
  br label %142

47:                                               ; preds = %19
  %48 = load ptr, ptr %7, align 8
  store ptr %48, ptr %6, align 8
  br label %49

49:                                               ; preds = %47
  %50 = load ptr, ptr %7, align 8
  %51 = getelementptr inbounds nuw %struct.SDL_XInput2DeviceInfo, ptr %50, i32 0, i32 5
  %52 = load ptr, ptr %51, align 8
  store ptr %52, ptr %7, align 8
  br label %16, !llvm.loop !15

53:                                               ; preds = %16
  %54 = call noalias ptr @SDL_calloc_REAL(i64 noundef 1, i64 noundef 64) #7
  store ptr %54, ptr %7, align 8
  %55 = load ptr, ptr %7, align 8
  %56 = icmp ne ptr %55, null
  br i1 %56, label %58, label %57

57:                                               ; preds = %53
  store ptr null, ptr %3, align 8
  store i32 1, ptr %11, align 4
  br label %142

58:                                               ; preds = %53
  %59 = load ptr, ptr @X11_XIQueryDevice, align 8
  %60 = load ptr, ptr %4, align 8
  %61 = getelementptr inbounds nuw %struct.SDL_VideoData, ptr %60, i32 0, i32 0
  %62 = load ptr, ptr %61, align 8
  %63 = load i32, ptr %5, align 4
  %64 = call ptr %59(ptr noundef %62, i32 noundef %63, ptr noundef %10)
  store ptr %64, ptr %8, align 8
  %65 = load ptr, ptr %8, align 8
  %66 = icmp ne ptr %65, null
  br i1 %66, label %69, label %67

67:                                               ; preds = %58
  %68 = load ptr, ptr %7, align 8
  call void @SDL_free_REAL(ptr noundef %68)
  store ptr null, ptr %3, align 8
  store i32 1, ptr %11, align 4
  br label %142

69:                                               ; preds = %58
  %70 = load i32, ptr %5, align 4
  %71 = load ptr, ptr %7, align 8
  %72 = getelementptr inbounds nuw %struct.SDL_XInput2DeviceInfo, ptr %71, i32 0, i32 0
  store i32 %70, ptr %72, align 8
  store i32 0, ptr %10, align 4
  br label %73

73:                                               ; preds = %127, %69
  %74 = load i32, ptr %10, align 4
  %75 = load ptr, ptr %8, align 8
  %76 = getelementptr inbounds nuw %struct.XIDeviceInfo, ptr %75, i32 0, i32 5
  %77 = load i32, ptr %76, align 4
  %78 = icmp slt i32 %74, %77
  br i1 %78, label %79, label %130

79:                                               ; preds = %73
  call void @llvm.lifetime.start.p0(i64 8, ptr %12) #6
  %80 = load ptr, ptr %8, align 8
  %81 = getelementptr inbounds nuw %struct.XIDeviceInfo, ptr %80, i32 0, i32 6
  %82 = load ptr, ptr %81, align 8
  %83 = load i32, ptr %10, align 4
  %84 = sext i32 %83 to i64
  %85 = getelementptr inbounds ptr, ptr %82, i64 %84
  %86 = load ptr, ptr %85, align 8
  store ptr %86, ptr %12, align 8
  %87 = load ptr, ptr %12, align 8
  %88 = getelementptr inbounds nuw %struct.XIValuatorClassInfo, ptr %87, i32 0, i32 0
  %89 = load i32, ptr %88, align 8
  %90 = icmp eq i32 %89, 2
  br i1 %90, label %91, label %123

91:                                               ; preds = %79
  %92 = load ptr, ptr %12, align 8
  %93 = getelementptr inbounds nuw %struct.XIValuatorClassInfo, ptr %92, i32 0, i32 8
  %94 = load i32, ptr %93, align 4
  %95 = icmp eq i32 %94, 0
  %96 = load ptr, ptr %7, align 8
  %97 = getelementptr inbounds nuw %struct.SDL_XInput2DeviceInfo, ptr %96, i32 0, i32 1
  %98 = load i32, ptr %9, align 4
  %99 = sext i32 %98 to i64
  %100 = getelementptr inbounds [2 x i8], ptr %97, i64 0, i64 %99
  %101 = zext i1 %95 to i8
  store i8 %101, ptr %100, align 1
  %102 = load ptr, ptr %12, align 8
  %103 = getelementptr inbounds nuw %struct.XIValuatorClassInfo, ptr %102, i32 0, i32 4
  %104 = load double, ptr %103, align 8
  %105 = load ptr, ptr %7, align 8
  %106 = getelementptr inbounds nuw %struct.SDL_XInput2DeviceInfo, ptr %105, i32 0, i32 2
  %107 = load i32, ptr %9, align 4
  %108 = sext i32 %107 to i64
  %109 = getelementptr inbounds [2 x double], ptr %106, i64 0, i64 %108
  store double %104, ptr %109, align 8
  %110 = load ptr, ptr %12, align 8
  %111 = getelementptr inbounds nuw %struct.XIValuatorClassInfo, ptr %110, i32 0, i32 5
  %112 = load double, ptr %111, align 8
  %113 = load ptr, ptr %7, align 8
  %114 = getelementptr inbounds nuw %struct.SDL_XInput2DeviceInfo, ptr %113, i32 0, i32 3
  %115 = load i32, ptr %9, align 4
  %116 = sext i32 %115 to i64
  %117 = getelementptr inbounds [2 x double], ptr %114, i64 0, i64 %116
  store double %112, ptr %117, align 8
  %118 = load i32, ptr %9, align 4
  %119 = add nsw i32 %118, 1
  store i32 %119, ptr %9, align 4
  %120 = icmp sge i32 %119, 2
  br i1 %120, label %121, label %122

121:                                              ; preds = %91
  store i32 7, ptr %11, align 4
  br label %124

122:                                              ; preds = %91
  br label %123

123:                                              ; preds = %122, %79
  store i32 0, ptr %11, align 4
  br label %124

124:                                              ; preds = %123, %121
  call void @llvm.lifetime.end.p0(i64 8, ptr %12) #6
  %125 = load i32, ptr %11, align 4
  switch i32 %125, label %144 [
    i32 0, label %126
    i32 7, label %130
  ]

126:                                              ; preds = %124
  br label %127

127:                                              ; preds = %126
  %128 = load i32, ptr %10, align 4
  %129 = add nsw i32 %128, 1
  store i32 %129, ptr %10, align 4
  br label %73, !llvm.loop !16

130:                                              ; preds = %124, %73
  %131 = load ptr, ptr @X11_XIFreeDeviceInfo, align 8
  %132 = load ptr, ptr %8, align 8
  call void %131(ptr noundef %132)
  %133 = load ptr, ptr %4, align 8
  %134 = getelementptr inbounds nuw %struct.SDL_VideoData, ptr %133, i32 0, i32 25
  %135 = load ptr, ptr %134, align 8
  %136 = load ptr, ptr %7, align 8
  %137 = getelementptr inbounds nuw %struct.SDL_XInput2DeviceInfo, ptr %136, i32 0, i32 5
  store ptr %135, ptr %137, align 8
  %138 = load ptr, ptr %7, align 8
  %139 = load ptr, ptr %4, align 8
  %140 = getelementptr inbounds nuw %struct.SDL_VideoData, ptr %139, i32 0, i32 25
  store ptr %138, ptr %140, align 8
  %141 = load ptr, ptr %7, align 8
  store ptr %141, ptr %3, align 8
  store i32 1, ptr %11, align 4
  br label %142

142:                                              ; preds = %130, %67, %57, %45
  call void @llvm.lifetime.end.p0(i64 4, ptr %10) #6
  call void @llvm.lifetime.end.p0(i64 4, ptr %9) #6
  call void @llvm.lifetime.end.p0(i64 8, ptr %8) #6
  call void @llvm.lifetime.end.p0(i64 8, ptr %7) #6
  call void @llvm.lifetime.end.p0(i64 8, ptr %6) #6
  %143 = load ptr, ptr %3, align 8
  ret ptr %143

144:                                              ; preds = %124
  unreachable
}