; Function Attrs: nounwind uwtable
define internal fastcc noundef ptr @xinput2_get_device_info(ptr noundef captures(none) %0, i32 noundef %1) unnamed_addr #0 {
  %3 = alloca i32, align 4
  call void @llvm.lifetime.start.p0(i64 4, ptr nonnull %3) #8
  %4 = getelementptr inbounds nuw i8, ptr %0, i64 1672
  %.04459 = load ptr, ptr %4, align 8
  %.not60 = icmp eq ptr %.04459, null
  br i1 %.not60, label %._crit_edge, label %.lr.ph.preheader

.lr.ph.preheader:                                 ; preds = %2
  %5 = load i32, ptr %.04459, align 8
  %6 = icmp eq i32 %5, %1
  br i1 %6, label %.lr.ph._crit_edge, label %.lr.ph77

.lr.ph:                                           ; preds = %.lr.ph77
  %7 = load i32, ptr %.044, align 8
  %8 = icmp eq i32 %7, %1
  br i1 %8, label %.lr.ph._crit_edge, label %.lr.ph77, !llvm.loop !19

.lr.ph._crit_edge:                                ; preds = %.lr.ph, %.lr.ph.preheader
  %.04462.lcssa = phi ptr [ %.04459, %.lr.ph.preheader ], [ %.044, %.lr.ph ]
  %.04361.lcssa = phi ptr [ null, %.lr.ph.preheader ], [ %.0446276, %.lr.ph ]
  %.not52 = icmp eq ptr %.04361.lcssa, null
  br i1 %.not52, label %56, label %9

9:                                                ; preds = %.lr.ph._crit_edge
  %10 = getelementptr inbounds nuw i8, ptr %.04462.lcssa, i64 56
  %11 = load ptr, ptr %10, align 8
  %12 = getelementptr inbounds nuw i8, ptr %.04361.lcssa, i64 56
  store ptr %11, ptr %12, align 8
  %13 = load ptr, ptr %4, align 8
  store ptr %13, ptr %10, align 8
  store ptr %.04462.lcssa, ptr %4, align 8
  br label %56

.lr.ph77:                                         ; preds = %.lr.ph.preheader, %.lr.ph
  %.0446276 = phi ptr [ %.044, %.lr.ph ], [ %.04459, %.lr.ph.preheader ]
  %14 = getelementptr inbounds nuw i8, ptr %.0446276, i64 56
  %.044 = load ptr, ptr %14, align 8
  %.not = icmp eq ptr %.044, null
  br i1 %.not, label %._crit_edge, label %.lr.ph, !llvm.loop !19

._crit_edge:                                      ; preds = %.lr.ph77, %2
  %15 = tail call noalias dereferenceable_or_null(64) ptr @SDL_calloc_REAL(i64 noundef 1, i64 noundef 64) #10
  %.not50 = icmp eq ptr %15, null
  br i1 %.not50, label %56, label %16

16:                                               ; preds = %._crit_edge
  %17 = load ptr, ptr @X11_XIQueryDevice, align 8
  %18 = load ptr, ptr %0, align 8
  %19 = call ptr %17(ptr noundef %18, i32 noundef %1, ptr noundef nonnull %3) #8
  %.not51 = icmp eq ptr %19, null
  br i1 %.not51, label %20, label %21

20:                                               ; preds = %16
  call void @SDL_free_REAL(ptr noundef nonnull %15) #8
  br label %56

21:                                               ; preds = %16
  store i32 %1, ptr %15, align 8
  %22 = getelementptr inbounds nuw i8, ptr %19, i64 28
  store i32 0, ptr %3, align 4
  %23 = load i32, ptr %22, align 4
  %24 = icmp sgt i32 %23, 0
  br i1 %24, label %.lr.ph66, label %._crit_edge67

.lr.ph66:                                         ; preds = %21
  %25 = getelementptr inbounds nuw i8, ptr %19, i64 32
  %26 = getelementptr inbounds nuw i8, ptr %15, i64 4
  %27 = getelementptr inbounds nuw i8, ptr %15, i64 8
  %28 = getelementptr inbounds nuw i8, ptr %15, i64 24
  %.pre = load ptr, ptr %25, align 8
  %29 = zext nneg i32 %23 to i64
  br label %30

30:                                               ; preds = %.lr.ph66, %50
  %indvars.iv = phi i64 [ 0, %.lr.ph66 ], [ %indvars.iv.next, %50 ]
  %.04264 = phi i32 [ 0, %.lr.ph66 ], [ %.2.ph, %50 ]
  %31 = getelementptr inbounds nuw ptr, ptr %.pre, i64 %indvars.iv
  %32 = load ptr, ptr %31, align 8
  %33 = load i32, ptr %32, align 8
  %34 = icmp eq i32 %33, 2
  br i1 %34, label %35, label %50

35:                                               ; preds = %30
  %36 = getelementptr inbounds nuw i8, ptr %32, i64 52
  %37 = load i32, ptr %36, align 4
  %38 = icmp eq i32 %37, 0
  %39 = sext i32 %.04264 to i64
  %40 = getelementptr inbounds [2 x i8], ptr %26, i64 0, i64 %39
  %41 = zext i1 %38 to i8
  store i8 %41, ptr %40, align 1
  %42 = getelementptr inbounds nuw i8, ptr %32, i64 24
  %43 = load double, ptr %42, align 8
  %44 = getelementptr inbounds [2 x double], ptr %27, i64 0, i64 %39
  store double %43, ptr %44, align 8
  %45 = getelementptr inbounds nuw i8, ptr %32, i64 32
  %46 = load double, ptr %45, align 8
  %47 = getelementptr inbounds [2 x double], ptr %28, i64 0, i64 %39
  store double %46, ptr %47, align 8
  %48 = add nsw i32 %.04264, 1
  %49 = icmp sgt i32 %.04264, 0
  br i1 %49, label %._crit_edge67, label %50

50:                                               ; preds = %30, %35
  %.2.ph = phi i32 [ %48, %35 ], [ %.04264, %30 ]
  %indvars.iv.next = add nuw nsw i64 %indvars.iv, 1
  %51 = trunc nuw nsw i64 %indvars.iv.next to i32
  store i32 %51, ptr %3, align 4
  %52 = icmp samesign ult i64 %indvars.iv.next, %29
  br i1 %52, label %30, label %._crit_edge67, !llvm.loop !20

._crit_edge67:                                    ; preds = %50, %35, %21
  %53 = load ptr, ptr @X11_XIFreeDeviceInfo, align 8
  call void %53(ptr noundef nonnull %19) #8
  %54 = load ptr, ptr %4, align 8
  %55 = getelementptr inbounds nuw i8, ptr %15, i64 56
  store ptr %54, ptr %55, align 8
  store ptr %15, ptr %4, align 8
  br label %56

56:                                               ; preds = %._crit_edge, %.lr.ph._crit_edge, %9, %._crit_edge67, %20
  %.0 = phi ptr [ %15, %._crit_edge67 ], [ null, %20 ], [ %.04462.lcssa, %9 ], [ %.04462.lcssa, %.lr.ph._crit_edge ], [ null, %._crit_edge ]
  call void @llvm.lifetime.end.p0(i64 4, ptr nonnull %3) #8
  ret ptr %.0
}